; ModuleID = '32/2241.c'
source_filename = "32/2241.c"
target datalayout = "e-m:e-p270:32:32-p271:32:32-p272:64:64-i64:64-f80:128-n8:16:32:64-S128"
target triple = "x86_64-pc-linux-gnu"

@.str = private unnamed_addr constant [3 x i8] c"%d\00", align 1
@.str.1 = private unnamed_addr constant [3 x i8] c"%s\00", align 1
@.str.2 = private unnamed_addr constant [2 x i8] c"\0A\00", align 1

; Function Attrs: noinline nounwind uwtable
define dso_local void @main() #0 {
  %1 = alloca i32, align 4
  %2 = alloca i32, align 4
  %3 = alloca i32, align 4
  %4 = alloca i32, align 4
  %5 = alloca i32, align 4
  %6 = alloca [101 x i32], align 16
  %7 = alloca [30 x [101 x i8]], align 16
  %8 = alloca [30 x [101 x i8]], align 16
  %9 = call i32 (i8*, ...) @__isoc99_scanf(i8* getelementptr inbounds ([3 x i8], [3 x i8]* @.str, i64 0, i64 0), i32* %3)
  store i32 1, i32* %1, align 4
  br label %10

10:                                               ; preds = %26, %0
  %11 = load i32, i32* %1, align 4
  %12 = load i32, i32* %3, align 4
  %13 = icmp sle i32 %11, %12
  br i1 %13, label %14, label %29

14:                                               ; preds = %10
  %15 = load i32, i32* %1, align 4
  %16 = sext i32 %15 to i64
  %17 = getelementptr inbounds [30 x [101 x i8]], [30 x [101 x i8]]* %7, i64 0, i64 %16
  %18 = getelementptr inbounds [101 x i8], [101 x i8]* %17, i64 0, i64 0
  %19 = call i32 (i8*, ...) @__isoc99_scanf(i8* getelementptr inbounds ([3 x i8], [3 x i8]* @.str.1, i64 0, i64 0), i8* %18)
  %20 = load i32, i32* %1, align 4
  %21 = sext i32 %20 to i64
  %22 = getelementptr inbounds [30 x [101 x i8]], [30 x [101 x i8]]* %8, i64 0, i64 %21
  %23 = getelementptr inbounds [101 x i8], [101 x i8]* %22, i64 0, i64 0
  %24 = call i32 (i8*, ...) @__isoc99_scanf(i8* getelementptr inbounds ([3 x i8], [3 x i8]* @.str.1, i64 0, i64 0), i8* %23)
  %25 = call i32 (i8*, ...) @printf(i8* getelementptr inbounds ([2 x i8], [2 x i8]* @.str.2, i64 0, i64 0))
  br label %26

26:                                               ; preds = %14
  %27 = load i32, i32* %1, align 4
  %28 = add nsw i32 %27, 1
  store i32 %28, i32* %1, align 4
  br label %10

29:                                               ; preds = %10
  store i32 1, i32* %1, align 4
  br label %30

30:                                               ; preds = %201, %29
  %31 = load i32, i32* %1, align 4
  %32 = load i32, i32* %3, align 4
  %33 = icmp sle i32 %31, %32
  br i1 %33, label %34, label %204

34:                                               ; preds = %30
  %35 = load i32, i32* %1, align 4
  %36 = sext i32 %35 to i64
  %37 = getelementptr inbounds [30 x [101 x i8]], [30 x [101 x i8]]* %7, i64 0, i64 %36
  %38 = getelementptr inbounds [101 x i8], [101 x i8]* %37, i64 0, i64 0
  %39 = call i64 @strlen(i8* %38) #3
  %40 = trunc i64 %39 to i32
  store i32 %40, i32* %4, align 4
  %41 = load i32, i32* %1, align 4
  %42 = sext i32 %41 to i64
  %43 = getelementptr inbounds [30 x [101 x i8]], [30 x [101 x i8]]* %8, i64 0, i64 %42
  %44 = getelementptr inbounds [101 x i8], [101 x i8]* %43, i64 0, i64 0
  %45 = call i64 @strlen(i8* %44) #3
  %46 = trunc i64 %45 to i32
  store i32 %46, i32* %5, align 4
  store i32 0, i32* %2, align 4
  br label %47

47:                                               ; preds = %155, %34
  %48 = load i32, i32* %2, align 4
  %49 = load i32, i32* %5, align 4
  %50 = sub nsw i32 %49, 1
  %51 = icmp sle i32 %48, %50
  br i1 %51, label %52, label %158

52:                                               ; preds = %47
  %53 = load i32, i32* %1, align 4
  %54 = sext i32 %53 to i64
  %55 = getelementptr inbounds [30 x [101 x i8]], [30 x [101 x i8]]* %7, i64 0, i64 %54
  %56 = load i32, i32* %4, align 4
  %57 = load i32, i32* %2, align 4
  %58 = sub nsw i32 %56, %57
  %59 = sub nsw i32 %58, 1
  %60 = sext i32 %59 to i64
  %61 = getelementptr inbounds [101 x i8], [101 x i8]* %55, i64 0, i64 %60
  %62 = load i8, i8* %61, align 1
  %63 = sext i8 %62 to i32
  %64 = load i32, i32* %1, align 4
  %65 = sext i32 %64 to i64
  %66 = getelementptr inbounds [30 x [101 x i8]], [30 x [101 x i8]]* %8, i64 0, i64 %65
  %67 = load i32, i32* %5, align 4
  %68 = load i32, i32* %2, align 4
  %69 = sub nsw i32 %67, %68
  %70 = sub nsw i32 %69, 1
  %71 = sext i32 %70 to i64
  %72 = getelementptr inbounds [101 x i8], [101 x i8]* %66, i64 0, i64 %71
  %73 = load i8, i8* %72, align 1
  %74 = sext i8 %73 to i32
  %75 = icmp slt i32 %63, %74
  br i1 %75, label %76, label %127

76:                                               ; preds = %52
  %77 = load i32, i32* %1, align 4
  %78 = sext i32 %77 to i64
  %79 = getelementptr inbounds [30 x [101 x i8]], [30 x [101 x i8]]* %7, i64 0, i64 %78
  %80 = load i32, i32* %4, align 4
  %81 = load i32, i32* %2, align 4
  %82 = sub nsw i32 %80, %81
  %83 = sub nsw i32 %82, 2
  %84 = sext i32 %83 to i64
  %85 = getelementptr inbounds [101 x i8], [101 x i8]* %79, i64 0, i64 %84
  %86 = load i8, i8* %85, align 1
  %87 = sext i8 %86 to i32
  %88 = sub nsw i32 %87, 49
  %89 = add nsw i32 %88, 48
  %90 = trunc i32 %89 to i8
  %91 = load i32, i32* %1, align 4
  %92 = sext i32 %91 to i64
  %93 = getelementptr inbounds [30 x [101 x i8]], [30 x [101 x i8]]* %7, i64 0, i64 %92
  %94 = load i32, i32* %4, align 4
  %95 = load i32, i32* %2, align 4
  %96 = sub nsw i32 %94, %95
  %97 = sub nsw i32 %96, 2
  %98 = sext i32 %97 to i64
  %99 = getelementptr inbounds [101 x i8], [101 x i8]* %93, i64 0, i64 %98
  store i8 %90, i8* %99, align 1
  %100 = load i32, i32* %1, align 4
  %101 = sext i32 %100 to i64
  %102 = getelementptr inbounds [30 x [101 x i8]], [30 x [101 x i8]]* %7, i64 0, i64 %101
  %103 = load i32, i32* %4, align 4
  %104 = load i32, i32* %2, align 4
  %105 = sub nsw i32 %103, %104
  %106 = sub nsw i32 %105, 1
  %107 = sext i32 %106 to i64
  %108 = getelementptr inbounds [101 x i8], [101 x i8]* %102, i64 0, i64 %107
  %109 = load i8, i8* %108, align 1
  %110 = sext i8 %109 to i32
  %111 = load i32, i32* %1, align 4
  %112 = sext i32 %111 to i64
  %113 = getelementptr inbounds [30 x [101 x i8]], [30 x [101 x i8]]* %8, i64 0, i64 %112
  %114 = load i32, i32* %5, align 4
  %115 = load i32, i32* %2, align 4
  %116 = sub nsw i32 %114, %115
  %117 = sub nsw i32 %116, 1
  %118 = sext i32 %117 to i64
  %119 = getelementptr inbounds [101 x i8], [101 x i8]* %113, i64 0, i64 %118
  %120 = load i8, i8* %119, align 1
  %121 = sext i8 %120 to i32
  %122 = sub nsw i32 %110, %121
  %123 = add nsw i32 %122, 10
  %124 = load i32, i32* %2, align 4
  %125 = sext i32 %124 to i64
  %126 = getelementptr inbounds [101 x i32], [101 x i32]* %6, i64 0, i64 %125
  store i32 %123, i32* %126, align 4
  br label %154

127:                                              ; preds = %52
  %128 = load i32, i32* %1, align 4
  %129 = sext i32 %128 to i64
  %130 = getelementptr inbounds [30 x [101 x i8]], [30 x [101 x i8]]* %7, i64 0, i64 %129
  %131 = load i32, i32* %4, align 4
  %132 = load i32, i32* %2, align 4
  %133 = sub nsw i32 %131, %132
  %134 = sub nsw i32 %133, 1
  %135 = sext i32 %134 to i64
  %136 = getelementptr inbounds [101 x i8], [101 x i8]* %130, i64 0, i64 %135
  %137 = load i8, i8* %136, align 1
  %138 = sext i8 %137 to i32
  %139 = load i32, i32* %1, align 4
  %140 = sext i32 %139 to i64
  %141 = getelementptr inbounds [30 x [101 x i8]], [30 x [101 x i8]]* %8, i64 0, i64 %140
  %142 = load i32, i32* %5, align 4
  %143 = load i32, i32* %2, align 4
  %144 = sub nsw i32 %142, %143
  %145 = sub nsw i32 %144, 1
  %146 = sext i32 %145 to i64
  %147 = getelementptr inbounds [101 x i8], [101 x i8]* %141, i64 0, i64 %146
  %148 = load i8, i8* %147, align 1
  %149 = sext i8 %148 to i32
  %150 = sub nsw i32 %138, %149
  %151 = load i32, i32* %2, align 4
  %152 = sext i32 %151 to i64
  %153 = getelementptr inbounds [101 x i32], [101 x i32]* %6, i64 0, i64 %152
  store i32 %150, i32* %153, align 4
  br label %154

154:                                              ; preds = %127, %76
  br label %155

155:                                              ; preds = %154
  %156 = load i32, i32* %2, align 4
  %157 = add nsw i32 %156, 1
  store i32 %157, i32* %2, align 4
  br label %47

158:                                              ; preds = %47
  %159 = load i32, i32* %5, align 4
  store i32 %159, i32* %2, align 4
  br label %160

160:                                              ; preds = %181, %158
  %161 = load i32, i32* %2, align 4
  %162 = load i32, i32* %4, align 4
  %163 = sub nsw i32 %162, 1
  %164 = icmp sle i32 %161, %163
  br i1 %164, label %165, label %184

165:                                              ; preds = %160
  %166 = load i32, i32* %1, align 4
  %167 = sext i32 %166 to i64
  %168 = getelementptr inbounds [30 x [101 x i8]], [30 x [101 x i8]]* %7, i64 0, i64 %167
  %169 = load i32, i32* %4, align 4
  %170 = load i32, i32* %2, align 4
  %171 = sub nsw i32 %169, %170
  %172 = sub nsw i32 %171, 1
  %173 = sext i32 %172 to i64
  %174 = getelementptr inbounds [101 x i8], [101 x i8]* %168, i64 0, i64 %173
  %175 = load i8, i8* %174, align 1
  %176 = sext i8 %175 to i32
  %177 = sub nsw i32 %176, 48
  %178 = load i32, i32* %2, align 4
  %179 = sext i32 %178 to i64
  %180 = getelementptr inbounds [101 x i32], [101 x i32]* %6, i64 0, i64 %179
  store i32 %177, i32* %180, align 4
  br label %181

181:                                              ; preds = %165
  %182 = load i32, i32* %2, align 4
  %183 = add nsw i32 %182, 1
  store i32 %183, i32* %2, align 4
  br label %160

184:                                              ; preds = %160
  %185 = load i32, i32* %4, align 4
  %186 = sub nsw i32 %185, 1
  store i32 %186, i32* %2, align 4
  br label %187

187:                                              ; preds = %196, %184
  %188 = load i32, i32* %2, align 4
  %189 = icmp sge i32 %188, 0
  br i1 %189, label %190, label %199

190:                                              ; preds = %187
  %191 = load i32, i32* %2, align 4
  %192 = sext i32 %191 to i64
  %193 = getelementptr inbounds [101 x i32], [101 x i32]* %6, i64 0, i64 %192
  %194 = load i32, i32* %193, align 4
  %195 = call i32 (i8*, ...) @printf(i8* getelementptr inbounds ([3 x i8], [3 x i8]* @.str, i64 0, i64 0), i32 %194)
  br label %196

196:                                              ; preds = %190
  %197 = load i32, i32* %2, align 4
  %198 = add nsw i32 %197, -1
  store i32 %198, i32* %2, align 4
  br label %187

199:                                              ; preds = %187
  %200 = call i32 (i8*, ...) @printf(i8* getelementptr inbounds ([2 x i8], [2 x i8]* @.str.2, i64 0, i64 0))
  br label %201

201:                                              ; preds = %199
  %202 = load i32, i32* %1, align 4
  %203 = add nsw i32 %202, 1
  store i32 %203, i32* %1, align 4
  br label %30

204:                                              ; preds = %30
  ret void
}

declare dso_local i32 @__isoc99_scanf(i8*, ...) #1

declare dso_local i32 @printf(i8*, ...) #1

; Function Attrs: nounwind readonly
declare dso_local i64 @strlen(i8*) #2


!llvm.module.flags = !{!0}
!llvm.ident = !{!1}

!0 = !{i32 1, !"wchar_size", i32 4}
!1 = !{!"clang version 10.0.0-4ubuntu1 "}
